target datalayout = "e-m:e-p270:32:32-p271:32:32-p272:64:64-i64:64-i128:128-f80:128-n8:16:32:64-S128"
target triple = "x86_64-pc-linux-gnu"

%struct.rb_data_type_struct = type { ptr, %struct.anon, ptr, ptr, i64 }
%struct.anon = type { ptr, ptr, ptr, ptr, [1 x ptr] }
%struct.RTypedData = type { %struct.RBasic, ptr, i64, ptr }
%struct.RBasic = type { i64, i64 }

@rb_eRuntimeError = external global i64, align 8
@cX509StoreContext = internal global i64 0, align 8
@ossl_x509stctx_type = internal constant %struct.rb_data_type_struct { ptr @.str.32, %struct.anon { ptr @ossl_x509stctx_mark, ptr @ossl_x509stctx_free, ptr null, ptr null, [1 x ptr] zeroinitializer }, ptr null, ptr null, i64 33 }, align 8
@.str.31 = private unnamed_addr constant [30 x i8] c"STORE_CTX wasn't initialized!\00", align 1

; Function Attrs: nounwind sspstrong uwtable
define internal i64 @ossl_x509stctx_new(ptr noundef %0) #0 {
  %2 = alloca ptr, align 8
  %3 = alloca i64, align 8
  store ptr %0, ptr %2, align 8, !tbaa !12
  call void @llvm.lifetime.start.p0(i64 8, ptr %3) #12
  %4 = load i64, ptr @cX509StoreContext, align 8, !tbaa !6
  %5 = call i64 @rb_data_typed_object_wrap(i64 noundef %4, ptr noundef null, ptr noundef @ossl_x509stctx_type)
  store i64 %5, ptr %3, align 8, !tbaa !6
  br label %6

6:                                                ; preds = %1
  %7 = load ptr, ptr %2, align 8, !tbaa !12
  %8 = icmp ne ptr %7, null
  br i1 %8, label %11, label %9

9:                                                ; preds = %6
  %10 = load i64, ptr @rb_eRuntimeError, align 8, !tbaa !6
  call void (i64, ptr, ...) @ossl_raise(i64 noundef %10, ptr noundef @.str.31) #16
  unreachable

11:                                               ; preds = %6
  %12 = load ptr, ptr %2, align 8, !tbaa !12
  %13 = load i64, ptr %3, align 8, !tbaa !6
  %14 = inttoptr i64 %13 to ptr
  %15 = getelementptr inbounds nuw %struct.RTypedData, ptr %14, i32 0, i32 3
  store ptr %12, ptr %15, align 8, !tbaa !19
  br label %16

16:                                               ; preds = %11
  br label %17

17:                                               ; preds = %16
  %18 = load i64, ptr %3, align 8, !tbaa !6
  call void @llvm.lifetime.end.p0(i64 8, ptr %3) #12
  ret i64 %18
}

; Function Attrs: nounwind sspstrong uwtable
define internal i64 @ossl_x509stctx_new_i(i64 noundef %0) #0 {
  %2 = alloca i64, align 8
  store i64 %0, ptr %2, align 8, !tbaa !6
  %3 = load i64, ptr %2, align 8, !tbaa !6
  %4 = inttoptr i64 %3 to ptr
  %5 = call i64 @ossl_x509stctx_new(ptr noundef %4)
  ret i64 %5
}