; Function Attrs: nounwind sspstrong uwtable
define internal i64 @ossl_x509stctx_new_i(i64 noundef %0) #0 {
  %2 = load i64, ptr @cX509StoreContext, align 8, !tbaa !20
  %3 = tail call i64 @rb_data_typed_object_wrap(i64 noundef %2, ptr noundef null, ptr noundef nonnull @ossl_x509stctx_type) #5
  %.not.i = icmp eq i64 %0, 0
  br i1 %.not.i, label %4, label %ossl_x509stctx_new.exit

4:                                                ; preds = %1
  %5 = load i64, ptr @rb_eRuntimeError, align 8, !tbaa !20
  tail call void (i64, ptr, ...) @ossl_raise(i64 noundef %5, ptr noundef nonnull @.str.31) #7
  unreachable

ossl_x509stctx_new.exit:                          ; preds = %1
  %6 = inttoptr i64 %0 to ptr
  %7 = inttoptr i64 %3 to ptr
  %8 = getelementptr inbounds nuw i8, ptr %7, i64 32
  store ptr %6, ptr %8, align 8, !tbaa !15
  ret i64 %3
}